target datalayout = "e-m:e-p270:32:32-p271:32:32-p272:64:64-i64:64-i128:128-f80:128-n8:16:32:64-S128"
target triple = "x86_64-unknown-linux-gnu"

%"class.std::__cxx11::basic_string" = type { %"struct.std::__cxx11::basic_string<char>::_Alloc_hider", i64, %union.anon }
%"struct.std::__cxx11::basic_string<char>::_Alloc_hider" = type { ptr }
%union.anon = type { i64, [8 x i8] }
%"class.std::allocator" = type { i8 }
%struct.Options = type { i8, %"class.std::__cxx11::basic_string", ptr }
%"class.struct_pb::compiler::FieldGenerator" = type { ptr, %"class.struct_pb::compiler::GeneratorBase", ptr }
%"class.struct_pb::compiler::GeneratorBase" = type { %struct.Options }
%"class.struct_pb::compiler::PrimitiveFieldGenerator" = type { %"class.struct_pb::compiler::FieldGenerator" }

@.str.30 = private unnamed_addr constant [5 x i8] c"size\00", align 1
@_ZN9struct_pb8compiler23PrimitiveFieldGeneratorC1EPKN6google8protobuf15FieldDescriptorERK7Options = dso_local unnamed_addr alias void (ptr, ptr, ptr), ptr @_ZN9struct_pb8compiler23PrimitiveFieldGeneratorC2EPKN6google8protobuf15FieldDescriptorERK7Options

; Function Attrs: mustprogress uwtable
define dso_local void @_ZNK9struct_pb8compiler31RepeatedPrimitiveFieldGenerator38generate_deserialization_unpacked_onlyEPN6google8protobuf2io7PrinterERKNSt7__cxx1112basic_stringIcSt11char_traitsIcESaIcEEE(ptr noundef nonnull align 8 dereferenceable(64) %this, ptr noundef %p, ptr noundef nonnull align 8 dereferenceable(32) %output) #4 align 2 personality ptr @__gxx_personality_v0 {
entry:
  %this.addr = alloca ptr, align 8
  %p.addr = alloca ptr, align 8
  %output.addr = alloca ptr, align 8
  %g = alloca %"class.struct_pb::compiler::PrimitiveFieldGenerator", align 8
  %ref.tmp = alloca %"class.std::__cxx11::basic_string", align 8
  %ref.tmp2 = alloca %"class.std::allocator", align 1
  %exn.slot = alloca ptr, align 8
  %ehselector.slot = alloca i32, align 4
  store ptr %this, ptr %this.addr, align 8
  store ptr %p, ptr %p.addr, align 8
  store ptr %output, ptr %output.addr, align 8
  %this1 = load ptr, ptr %this.addr, align 8
  %d_ = getelementptr inbounds %"class.struct_pb::compiler::FieldGenerator", ptr %this1, i32 0, i32 2
  %0 = load ptr, ptr %d_, align 8
  %add.ptr = getelementptr inbounds i8, ptr %this1, i64 8
  %options_ = getelementptr inbounds %"class.struct_pb::compiler::GeneratorBase", ptr %add.ptr, i32 0, i32 0
  call void @_ZN9struct_pb8compiler23PrimitiveFieldGeneratorC1EPKN6google8protobuf15FieldDescriptorERK7Options(ptr noundef nonnull align 8 dereferenceable(64) %g, ptr noundef %0, ptr noundef nonnull align 8 dereferenceable(48) %options_)
  %1 = load ptr, ptr %p.addr, align 8
  %2 = load ptr, ptr %output.addr, align 8
  call void @_ZNSaIcEC1Ev(ptr noundef nonnull align 1 dereferenceable(1) %ref.tmp2) #3
  invoke void @_ZNSt7__cxx1112basic_stringIcSt11char_traitsIcESaIcEEC2IS3_EEPKcRKS3_(ptr noundef nonnull align 8 dereferenceable(32) %ref.tmp, ptr noundef @.str.30, ptr noundef nonnull align 1 dereferenceable(1) %ref.tmp2)
          to label %invoke.cont unwind label %lpad

invoke.cont:                                      ; preds = %entry
  invoke void @_ZNK9struct_pb8compiler23PrimitiveFieldGenerator29generate_deserialization_onlyEPN6google8protobuf2io7PrinterERKNSt7__cxx1112basic_stringIcSt11char_traitsIcESaIcEEESE_(ptr noundef nonnull align 8 dereferenceable(64) %g, ptr noundef %1, ptr noundef nonnull align 8 dereferenceable(32) %2, ptr noundef nonnull align 8 dereferenceable(32) %ref.tmp)
          to label %invoke.cont4 unwind label %lpad3

invoke.cont4:                                     ; preds = %invoke.cont
  call void @_ZNSt7__cxx1112basic_stringIcSt11char_traitsIcESaIcEED2Ev(ptr noundef nonnull align 8 dereferenceable(32) %ref.tmp) #3
  call void @_ZNSaIcED1Ev(ptr noundef nonnull align 1 dereferenceable(1) %ref.tmp2) #3
  call void @_ZN9struct_pb8compiler23PrimitiveFieldGeneratorD2Ev(ptr noundef nonnull align 8 dereferenceable(64) %g) #3
  ret void

lpad:                                             ; preds = %entry
  %3 = landingpad { ptr, i32 }
          cleanup
  %4 = extractvalue { ptr, i32 } %3, 0
  store ptr %4, ptr %exn.slot, align 8
  %5 = extractvalue { ptr, i32 } %3, 1
  store i32 %5, ptr %ehselector.slot, align 4
  br label %ehcleanup

lpad3:                                            ; preds = %invoke.cont
  %6 = landingpad { ptr, i32 }
          cleanup
  %7 = extractvalue { ptr, i32 } %6, 0
  store ptr %7, ptr %exn.slot, align 8
  %8 = extractvalue { ptr, i32 } %6, 1
  store i32 %8, ptr %ehselector.slot, align 4
  call void @_ZNSt7__cxx1112basic_stringIcSt11char_traitsIcESaIcEED2Ev(ptr noundef nonnull align 8 dereferenceable(32) %ref.tmp) #3
  br label %ehcleanup

ehcleanup:                                        ; preds = %lpad3, %lpad
  call void @_ZNSaIcED1Ev(ptr noundef nonnull align 1 dereferenceable(1) %ref.tmp2) #3
  call void @_ZN9struct_pb8compiler23PrimitiveFieldGeneratorD2Ev(ptr noundef nonnull align 8 dereferenceable(64) %g) #3
  br label %eh.resume

eh.resume:                                        ; preds = %ehcleanup
  %exn = load ptr, ptr %exn.slot, align 8
  %sel = load i32, ptr %ehselector.slot, align 4
  %lpad.val = insertvalue { ptr, i32 } poison, ptr %exn, 0
  %lpad.val6 = insertvalue { ptr, i32 } %lpad.val, i32 %sel, 1
  resume { ptr, i32 } %lpad.val6
}