; Function Attrs: mustprogress uwtable
define dso_local void @_ZNK9struct_pb8compiler31RepeatedPrimitiveFieldGenerator38generate_deserialization_unpacked_onlyEPN6google8protobuf2io7PrinterERKNSt7__cxx1112basic_stringIcSt11char_traitsIcESaIcEEE(ptr noundef nonnull align 8 dereferenceable(64) %this, ptr noundef %p, ptr noundef nonnull align 8 dereferenceable(32) %output) local_unnamed_addr #3 align 2 personality ptr @__gxx_personality_v0 {
entry:
  %agg.tmp.i.i = alloca %struct.Options, align 8
  %g = alloca %"class.struct_pb::compiler::PrimitiveFieldGenerator", align 8
  %ref.tmp = alloca %"class.std::__cxx11::basic_string", align 8
  %ref.tmp2 = alloca %"class.std::allocator", align 1
  %d_ = getelementptr inbounds i8, ptr %this, i64 56
  %0 = load ptr, ptr %d_, align 8
  %add.ptr = getelementptr inbounds i8, ptr %this, i64 8
  call void @llvm.lifetime.start.p0(i64 48, ptr nonnull %agg.tmp.i.i)
  %1 = getelementptr inbounds i8, ptr %g, i64 8
  %2 = load i8, ptr %add.ptr, align 8
  %3 = and i8 %2, 1
  store i8 %3, ptr %agg.tmp.i.i, align 8
  %ns.i.i.i = getelementptr inbounds i8, ptr %agg.tmp.i.i, i64 8
  %ns3.i.i.i = getelementptr inbounds i8, ptr %this, i64 16
  call void @_ZNSt7__cxx1112basic_stringIcSt11char_traitsIcESaIcEEC2ERKS4_(ptr noundef nonnull align 8 dereferenceable(32) %ns.i.i.i, ptr noundef nonnull align 8 dereferenceable(32) %ns3.i.i.i)
  %f.i.i.i = getelementptr inbounds i8, ptr %agg.tmp.i.i, i64 40
  %f4.i.i.i = getelementptr inbounds i8, ptr %this, i64 48
  %4 = load ptr, ptr %f4.i.i.i, align 8
  store ptr %4, ptr %f.i.i.i, align 8
  %5 = load i8, ptr %agg.tmp.i.i, align 8
  %6 = and i8 %5, 1
  store i8 %6, ptr %1, align 8
  %ns.i.i.i.i = getelementptr inbounds i8, ptr %g, i64 16
  invoke void @_ZNSt7__cxx1112basic_stringIcSt11char_traitsIcESaIcEEC2ERKS4_(ptr noundef nonnull align 8 dereferenceable(32) %ns.i.i.i.i, ptr noundef nonnull align 8 dereferenceable(32) %ns.i.i.i)
          to label %invoke.cont.i.i unwind label %lpad.i.i

invoke.cont.i.i:                                  ; preds = %entry
  %f.i.i.i.i = getelementptr inbounds i8, ptr %g, i64 48
  %7 = load ptr, ptr %f.i.i.i, align 8
  store ptr %7, ptr %f.i.i.i.i, align 8
  %8 = load ptr, ptr %ns.i.i.i, align 8
  %9 = getelementptr inbounds i8, ptr %agg.tmp.i.i, i64 24
  %cmp.i.i.i.i.i.i = icmp eq ptr %8, %9
  br i1 %cmp.i.i.i.i.i.i, label %_ZNKSt7__cxx1112basic_stringIcSt11char_traitsIcESaIcEE11_M_is_localEv.exit.thread.i.i.i.i.i, label %if.then.i.i.i.i.i

_ZNKSt7__cxx1112basic_stringIcSt11char_traitsIcESaIcEE11_M_is_localEv.exit.thread.i.i.i.i.i: ; preds = %invoke.cont.i.i
  %_M_string_length.i.i.i.i.i.i = getelementptr inbounds i8, ptr %agg.tmp.i.i, i64 16
  %10 = load i64, ptr %_M_string_length.i.i.i.i.i.i, align 8
  %cmp3.i.i.i.i.i.i = icmp ult i64 %10, 16
  call void @llvm.assume(i1 %cmp3.i.i.i.i.i.i)
  br label %_ZN9struct_pb8compiler23PrimitiveFieldGeneratorC2EPKN6google8protobuf15FieldDescriptorERK7Options.exit

if.then.i.i.i.i.i:                                ; preds = %invoke.cont.i.i
  call void @_ZdlPv(ptr noundef %8) #21
  br label %_ZN9struct_pb8compiler23PrimitiveFieldGeneratorC2EPKN6google8protobuf15FieldDescriptorERK7Options.exit

common.resume:                                    ; preds = %ehcleanup, %lpad.i.i
  %common.resume.op = phi { ptr, i32 } [ %11, %lpad.i.i ], [ %.pn, %ehcleanup ]
  resume { ptr, i32 } %common.resume.op

lpad.i.i:                                         ; preds = %entry
  %11 = landingpad { ptr, i32 }
          cleanup
  call void @_ZN7OptionsD2Ev(ptr noundef nonnull align 8 dereferenceable(48) %agg.tmp.i.i) #18
  br label %common.resume

_ZN9struct_pb8compiler23PrimitiveFieldGeneratorC2EPKN6google8protobuf15FieldDescriptorERK7Options.exit: ; preds = %_ZNKSt7__cxx1112basic_stringIcSt11char_traitsIcESaIcEE11_M_is_localEv.exit.thread.i.i.i.i.i, %if.then.i.i.i.i.i
  call void @_ZNSaIcED2Ev(ptr noundef nonnull align 1 dereferenceable(1) %ns.i.i.i) #18
  %d_.i.i = getelementptr inbounds i8, ptr %g, i64 56
  store ptr %0, ptr %d_.i.i, align 8
  call void @llvm.lifetime.end.p0(i64 48, ptr nonnull %agg.tmp.i.i)
  store ptr getelementptr inbounds ({ [7 x ptr] }, ptr @_ZTVN9struct_pb8compiler23PrimitiveFieldGeneratorE, i64 0, i32 0, i64 2), ptr %g, align 8
  call void @_ZNSaIcEC1Ev(ptr noundef nonnull align 1 dereferenceable(1) %ref.tmp2) #18
  invoke void @_ZNSt7__cxx1112basic_stringIcSt11char_traitsIcESaIcEEC2IS3_EEPKcRKS3_(ptr noundef nonnull align 8 dereferenceable(32) %ref.tmp, ptr noundef nonnull @.str.30, ptr noundef nonnull align 1 dereferenceable(1) %ref.tmp2)
          to label %invoke.cont unwind label %lpad

invoke.cont:                                      ; preds = %_ZN9struct_pb8compiler23PrimitiveFieldGeneratorC2EPKN6google8protobuf15FieldDescriptorERK7Options.exit
  invoke void @_ZNK9struct_pb8compiler23PrimitiveFieldGenerator29generate_deserialization_onlyEPN6google8protobuf2io7PrinterERKNSt7__cxx1112basic_stringIcSt11char_traitsIcESaIcEEESE_(ptr noundef nonnull align 8 dereferenceable(64) %g, ptr noundef %p, ptr noundef nonnull align 8 dereferenceable(32) %output, ptr noundef nonnull align 8 dereferenceable(32) %ref.tmp)
          to label %invoke.cont4 unwind label %lpad3

invoke.cont4:                                     ; preds = %invoke.cont
  %12 = load ptr, ptr %ref.tmp, align 8
  %13 = getelementptr inbounds i8, ptr %ref.tmp, i64 16
  %cmp.i.i.i = icmp eq ptr %12, %13
  br i1 %cmp.i.i.i, label %_ZNKSt7__cxx1112basic_stringIcSt11char_traitsIcESaIcEE11_M_is_localEv.exit.thread.i.i, label %if.then.i.i

_ZNKSt7__cxx1112basic_stringIcSt11char_traitsIcESaIcEE11_M_is_localEv.exit.thread.i.i: ; preds = %invoke.cont4
  %_M_string_length.i.i.i = getelementptr inbounds i8, ptr %ref.tmp, i64 8
  %14 = load i64, ptr %_M_string_length.i.i.i, align 8
  %cmp3.i.i.i = icmp ult i64 %14, 16
  call void @llvm.assume(i1 %cmp3.i.i.i)
  br label %_ZNSt7__cxx1112basic_stringIcSt11char_traitsIcESaIcEED2Ev.exit

if.then.i.i:                                      ; preds = %invoke.cont4
  call void @_ZdlPv(ptr noundef %12) #21
  br label %_ZNSt7__cxx1112basic_stringIcSt11char_traitsIcESaIcEED2Ev.exit

_ZNSt7__cxx1112basic_stringIcSt11char_traitsIcESaIcEED2Ev.exit: ; preds = %_ZNKSt7__cxx1112basic_stringIcSt11char_traitsIcESaIcEE11_M_is_localEv.exit.thread.i.i, %if.then.i.i
  call void @_ZNSaIcED2Ev(ptr noundef nonnull align 1 dereferenceable(1) %ref.tmp) #18
  call void @_ZNSaIcED1Ev(ptr noundef nonnull align 1 dereferenceable(1) %ref.tmp2) #18
  %15 = load ptr, ptr %ns.i.i.i.i, align 8
  %16 = getelementptr inbounds i8, ptr %g, i64 32
  %cmp.i.i.i.i.i.i.i = icmp eq ptr %15, %16
  br i1 %cmp.i.i.i.i.i.i.i, label %_ZNKSt7__cxx1112basic_stringIcSt11char_traitsIcESaIcEE11_M_is_localEv.exit.thread.i.i.i.i.i.i, label %if.then.i.i.i.i.i.i

_ZNKSt7__cxx1112basic_stringIcSt11char_traitsIcESaIcEE11_M_is_localEv.exit.thread.i.i.i.i.i.i: ; preds = %_ZNSt7__cxx1112basic_stringIcSt11char_traitsIcESaIcEED2Ev.exit
  %_M_string_length.i.i.i.i.i.i.i = getelementptr inbounds i8, ptr %g, i64 24
  %17 = load i64, ptr %_M_string_length.i.i.i.i.i.i.i, align 8
  %cmp3.i.i.i.i.i.i.i = icmp ult i64 %17, 16
  call void @llvm.assume(i1 %cmp3.i.i.i.i.i.i.i)
  br label %_ZN9struct_pb8compiler23PrimitiveFieldGeneratorD2Ev.exit

if.then.i.i.i.i.i.i:                              ; preds = %_ZNSt7__cxx1112basic_stringIcSt11char_traitsIcESaIcEED2Ev.exit
  call void @_ZdlPv(ptr noundef %15) #21
  br label %_ZN9struct_pb8compiler23PrimitiveFieldGeneratorD2Ev.exit

_ZN9struct_pb8compiler23PrimitiveFieldGeneratorD2Ev.exit: ; preds = %_ZNKSt7__cxx1112basic_stringIcSt11char_traitsIcESaIcEE11_M_is_localEv.exit.thread.i.i.i.i.i.i, %if.then.i.i.i.i.i.i
  call void @_ZNSaIcED2Ev(ptr noundef nonnull align 1 dereferenceable(1) %ns.i.i.i.i) #18
  ret void

lpad:                                             ; preds = %_ZN9struct_pb8compiler23PrimitiveFieldGeneratorC2EPKN6google8protobuf15FieldDescriptorERK7Options.exit
  %18 = landingpad { ptr, i32 }
          cleanup
  br label %ehcleanup

lpad3:                                            ; preds = %invoke.cont
  %19 = landingpad { ptr, i32 }
          cleanup
  call void @_ZNSt7__cxx1112basic_stringIcSt11char_traitsIcESaIcEED2Ev(ptr noundef nonnull align 8 dereferenceable(32) %ref.tmp) #18
  br label %ehcleanup

ehcleanup:                                        ; preds = %lpad3, %lpad
  %.pn = phi { ptr, i32 } [ %19, %lpad3 ], [ %18, %lpad ]
  call void @_ZNSaIcED1Ev(ptr noundef nonnull align 1 dereferenceable(1) %ref.tmp2) #18
  call void @_ZN9struct_pb8compiler23PrimitiveFieldGeneratorD2Ev(ptr noundef nonnull align 8 dereferenceable(64) %g) #18
  br label %common.resume
}